target datalayout = "e-m:e-p270:32:32-p271:32:32-p272:64:64-i64:64-i128:128-f80:128-n8:16:32:64-S128"
target triple = "x86_64-pc-linux-gnu"

%struct.expert_field = type { i32, i32 }

@ei_gsm_sms_short_data = internal global %struct.expert_field zeroinitializer, align 4
@hf_gsm_sms_formatting_mode = internal global i32 0, align 4
@hf_gsm_sms_dis_iei_tf_start_position = internal global i32 0, align 4
@hf_gsm_sms_dis_iei_tf_length = internal global i32 0, align 4
@hf_gsm_sms_dis_iei_tf_foreground_colour = internal global i32 0, align 4
@hf_gsm_sms_dis_iei_tf_background_colour = internal global i32 0, align 4
@ett_udh_tfm = internal global i32 0, align 4
@ett_udh_tfc = internal global i32 0, align 4
@.str.334 = private unnamed_addr constant [12 x i8] c"Text Colour\00", align 1

; Function Attrs: null_pointer_is_valid sspstrong uwtable
define internal void @dis_iei_tf(ptr noundef %0, ptr noundef %1, ptr noundef %2, i32 noundef %3, i8 noundef zeroext %4, ptr noundef %5) #0 {
  %7 = alloca ptr, align 8
  %8 = alloca ptr, align 8
  %9 = alloca ptr, align 8
  %10 = alloca i32, align 4
  %11 = alloca i8, align 1
  %12 = alloca ptr, align 8
  %13 = alloca ptr, align 8
  %14 = alloca i32, align 4
  store ptr %0, ptr %7, align 8
  store ptr %1, ptr %8, align 8
  store ptr %2, ptr %9, align 8
  store i32 %3, ptr %10, align 4
  store i8 %4, ptr %11, align 1
  store ptr %5, ptr %12, align 8
  call void @llvm.lifetime.start.p0(i64 8, ptr %13) #13
  %15 = load i8, ptr %11, align 1
  %16 = zext i8 %15 to i32
  %17 = icmp slt i32 %16, 3
  br i1 %17, label %18, label %26

18:                                               ; preds = %6
  %19 = load ptr, ptr %9, align 8
  %20 = load ptr, ptr %8, align 8
  %21 = load ptr, ptr %7, align 8
  %22 = load i32, ptr %10, align 4
  %23 = load i8, ptr %11, align 1
  %24 = zext i8 %23 to i32
  %25 = call ptr @proto_tree_add_expert(ptr noundef %19, ptr noundef %20, ptr noundef @ei_gsm_sms_short_data, ptr noundef %21, i32 noundef %22, i32 noundef %24)
  store i32 1, ptr %14, align 4
  br label %69

26:                                               ; preds = %6
  %27 = load ptr, ptr %9, align 8
  %28 = load i32, ptr @hf_gsm_sms_dis_iei_tf_start_position, align 4
  %29 = load ptr, ptr %7, align 8
  %30 = load i32, ptr %10, align 4
  %31 = call ptr @proto_tree_add_item(ptr noundef %27, i32 noundef %28, ptr noundef %29, i32 noundef %30, i32 noundef 1, i32 noundef 0)
  %32 = load i32, ptr %10, align 4
  %33 = add i32 %32, 1
  store i32 %33, ptr %10, align 4
  %34 = load ptr, ptr %9, align 8
  %35 = load i32, ptr @hf_gsm_sms_dis_iei_tf_length, align 4
  %36 = load ptr, ptr %7, align 8
  %37 = load i32, ptr %10, align 4
  %38 = call ptr @proto_tree_add_item(ptr noundef %34, i32 noundef %35, ptr noundef %36, i32 noundef %37, i32 noundef 1, i32 noundef 0)
  %39 = load i32, ptr %10, align 4
  %40 = add i32 %39, 1
  store i32 %40, ptr %10, align 4
  %41 = load ptr, ptr %9, align 8
  %42 = load ptr, ptr %7, align 8
  %43 = load i32, ptr %10, align 4
  %44 = load i32, ptr @hf_gsm_sms_formatting_mode, align 4
  %45 = load i32, ptr @ett_udh_tfm, align 4
  %46 = call ptr @proto_tree_add_bitmask(ptr noundef %41, ptr noundef %42, i32 noundef %43, i32 noundef %44, i32 noundef %45, ptr noundef @dis_iei_tf.format_flags, i32 noundef 0)
  %47 = load i32, ptr %10, align 4
  %48 = add i32 %47, 1
  store i32 %48, ptr %10, align 4
  %49 = load i8, ptr %11, align 1
  %50 = zext i8 %49 to i32
  %51 = icmp sgt i32 %50, 3
  br i1 %51, label %52, label %68

52:                                               ; preds = %26
  %53 = load ptr, ptr %9, align 8
  %54 = load ptr, ptr %7, align 8
  %55 = load i32, ptr %10, align 4
  %56 = load i32, ptr @ett_udh_tfc, align 4
  %57 = call ptr @proto_tree_add_subtree(ptr noundef %53, ptr noundef %54, i32 noundef %55, i32 noundef 1, i32 noundef %56, ptr noundef null, ptr noundef @.str.334)
  store ptr %57, ptr %13, align 8
  %58 = load ptr, ptr %13, align 8
  %59 = load i32, ptr @hf_gsm_sms_dis_iei_tf_foreground_colour, align 4
  %60 = load ptr, ptr %7, align 8
  %61 = load i32, ptr %10, align 4
  %62 = call ptr @proto_tree_add_item(ptr noundef %58, i32 noundef %59, ptr noundef %60, i32 noundef %61, i32 noundef 1, i32 noundef 0)
  %63 = load ptr, ptr %13, align 8
  %64 = load i32, ptr @hf_gsm_sms_dis_iei_tf_background_colour, align 4
  %65 = load ptr, ptr %7, align 8
  %66 = load i32, ptr %10, align 4
  %67 = call ptr @proto_tree_add_item(ptr noundef %63, i32 noundef %64, ptr noundef %65, i32 noundef %66, i32 noundef 1, i32 noundef 0)
  br label %68

68:                                               ; preds = %52, %26
  store i32 0, ptr %14, align 4
  br label %69

69:                                               ; preds = %68, %18
  call void @llvm.lifetime.end.p0(i64 8, ptr %13) #13
  %70 = load i32, ptr %14, align 4
  switch i32 %70, label %72 [
    i32 0, label %71
    i32 1, label %71
  ]

71:                                               ; preds = %69, %69
  ret void

72:                                               ; preds = %69
  unreachable
}