; Function Attrs: null_pointer_is_valid sspstrong uwtable
define internal void @dis_iei_tf(ptr noundef %0, ptr noundef %1, ptr noundef %2, i32 noundef %3, i8 noundef zeroext %4, ptr readnone captures(none) %5) unnamed_addr #0 {
  %7 = icmp ult i8 %4, 3
  br i1 %7, label %8, label %11

8:                                                ; preds = %6
  %9 = zext nneg i8 %4 to i32
  %10 = tail call ptr @proto_tree_add_expert(ptr noundef %2, ptr noundef %1, ptr noundef nonnull @ei_gsm_sms_short_data, ptr noundef %0, i32 noundef %3, i32 noundef %9)
  br label %29

11:                                               ; preds = %6
  %12 = load i32, ptr @hf_gsm_sms_dis_iei_tf_start_position, align 4
  %13 = tail call ptr @proto_tree_add_item(ptr noundef %2, i32 noundef %12, ptr noundef %0, i32 noundef %3, i32 noundef 1, i32 noundef 0)
  %14 = add i32 %3, 1
  %15 = load i32, ptr @hf_gsm_sms_dis_iei_tf_length, align 4
  %16 = tail call ptr @proto_tree_add_item(ptr noundef %2, i32 noundef %15, ptr noundef %0, i32 noundef %14, i32 noundef 1, i32 noundef 0)
  %17 = add i32 %3, 2
  %18 = load i32, ptr @hf_gsm_sms_formatting_mode, align 4
  %19 = load i32, ptr @ett_udh_tfm, align 4
  %20 = tail call ptr @proto_tree_add_bitmask(ptr noundef %2, ptr noundef %0, i32 noundef %17, i32 noundef %18, i32 noundef %19, ptr noundef nonnull @dis_iei_tf.format_flags, i32 noundef 0)
  %.not = icmp eq i8 %4, 3
  br i1 %.not, label %29, label %21

21:                                               ; preds = %11
  %22 = add i32 %3, 3
  %23 = load i32, ptr @ett_udh_tfc, align 4
  %24 = tail call ptr @proto_tree_add_subtree(ptr noundef %2, ptr noundef %0, i32 noundef %22, i32 noundef 1, i32 noundef %23, ptr noundef null, ptr noundef nonnull @.str.334)
  %25 = load i32, ptr @hf_gsm_sms_dis_iei_tf_foreground_colour, align 4
  %26 = tail call ptr @proto_tree_add_item(ptr noundef %24, i32 noundef %25, ptr noundef %0, i32 noundef %22, i32 noundef 1, i32 noundef 0)
  %27 = load i32, ptr @hf_gsm_sms_dis_iei_tf_background_colour, align 4
  %28 = tail call ptr @proto_tree_add_item(ptr noundef %24, i32 noundef %27, ptr noundef %0, i32 noundef %22, i32 noundef 1, i32 noundef 0)
  br label %29

29:                                               ; preds = %11, %21, %8
  ret void
}